target datalayout = "e-m:e-p270:32:32-p271:32:32-p272:64:64-i64:64-i128:128-f80:128-n8:16:32:64-S128"
target triple = "x86_64-pc-linux-gnu"

%class.int3 = type { i32, i32, i32 }

; Function Attrs: mustprogress uwtable
define dso_local noundef i32 @_Z7hasedgeRK4int3ii(ptr noundef nonnull align 4 dereferenceable(12) %0, i32 noundef %1, i32 noundef %2) #8 {
  %4 = alloca i32, align 4
  %5 = alloca ptr, align 8
  %6 = alloca i32, align 4
  %7 = alloca i32, align 4
  %8 = alloca i32, align 4
  %9 = alloca i32, align 4
  %10 = alloca i32, align 4
  store ptr %0, ptr %5, align 8, !tbaa !59
  store i32 %1, ptr %6, align 4, !tbaa !9
  store i32 %2, ptr %7, align 4, !tbaa !9
  call void @llvm.lifetime.start.p0(i64 4, ptr %8) #14
  store i32 0, ptr %8, align 4, !tbaa !9
  br label %11

11:                                               ; preds = %37, %3
  %12 = load i32, ptr %8, align 4, !tbaa !9
  %13 = icmp slt i32 %12, 3
  br i1 %13, label %15, label %14

14:                                               ; preds = %11
  store i32 2, ptr %9, align 4
  br label %40

15:                                               ; preds = %11
  call void @llvm.lifetime.start.p0(i64 4, ptr %10) #14
  %16 = load i32, ptr %8, align 4, !tbaa !9
  %17 = add nsw i32 %16, 1
  %18 = srem i32 %17, 3
  store i32 %18, ptr %10, align 4, !tbaa !9
  %19 = load ptr, ptr %5, align 8, !tbaa !59
  %20 = load i32, ptr %8, align 4, !tbaa !9
  %21 = call noundef nonnull align 4 dereferenceable(4) ptr @_ZNK4int3ixEi(ptr noundef nonnull align 4 dereferenceable(12) %19, i32 noundef %20)
  %22 = load i32, ptr %21, align 4, !tbaa !9
  %23 = load i32, ptr %6, align 4, !tbaa !9
  %24 = icmp eq i32 %22, %23
  br i1 %24, label %25, label %33

25:                                               ; preds = %15
  %26 = load ptr, ptr %5, align 8, !tbaa !59
  %27 = load i32, ptr %10, align 4, !tbaa !9
  %28 = call noundef nonnull align 4 dereferenceable(4) ptr @_ZNK4int3ixEi(ptr noundef nonnull align 4 dereferenceable(12) %26, i32 noundef %27)
  %29 = load i32, ptr %28, align 4, !tbaa !9
  %30 = load i32, ptr %7, align 4, !tbaa !9
  %31 = icmp eq i32 %29, %30
  br i1 %31, label %32, label %33

32:                                               ; preds = %25
  store i32 1, ptr %4, align 4
  store i32 1, ptr %9, align 4
  br label %34

33:                                               ; preds = %25, %15
  store i32 0, ptr %9, align 4
  br label %34

34:                                               ; preds = %33, %32
  call void @llvm.lifetime.end.p0(i64 4, ptr %10) #14
  %35 = load i32, ptr %9, align 4
  switch i32 %35, label %40 [
    i32 0, label %36
  ]

36:                                               ; preds = %34
  br label %37

37:                                               ; preds = %36
  %38 = load i32, ptr %8, align 4, !tbaa !9
  %39 = add nsw i32 %38, 1
  store i32 %39, ptr %8, align 4, !tbaa !9
  br label %11, !llvm.loop !62

40:                                               ; preds = %34, %14
  call void @llvm.lifetime.end.p0(i64 4, ptr %8) #14
  %41 = load i32, ptr %9, align 4
  switch i32 %41, label %45 [
    i32 2, label %42
    i32 1, label %43
  ]

42:                                               ; preds = %40
  store i32 0, ptr %4, align 4
  br label %43

43:                                               ; preds = %42, %40
  %44 = load i32, ptr %4, align 4
  ret i32 %44

45:                                               ; preds = %40
  unreachable
}

; Function Attrs: mustprogress nounwind uwtable
define linkonce_odr dso_local noundef nonnull align 4 dereferenceable(4) ptr @_ZNK4int3ixEi(ptr noundef nonnull align 4 dereferenceable(12) %0, i32 noundef %1) #1 comdat align 2 {
  %3 = alloca ptr, align 8
  %4 = alloca i32, align 4
  store ptr %0, ptr %3, align 8, !tbaa !59
  store i32 %1, ptr %4, align 4, !tbaa !9
  %5 = load ptr, ptr %3, align 8
  %6 = getelementptr inbounds nuw %class.int3, ptr %5, i32 0, i32 0
  %7 = load i32, ptr %4, align 4, !tbaa !9
  %8 = sext i32 %7 to i64
  %9 = getelementptr inbounds i32, ptr %6, i64 %8
  ret ptr %9
}

; Function Attrs: mustprogress uwtable
define dso_local noundef i32 @_Z9shareedgeRK4int3S1_(ptr noundef nonnull align 4 dereferenceable(12) %0, ptr noundef nonnull align 4 dereferenceable(12) %1) #8 {
  %3 = alloca i32, align 4
  %4 = alloca ptr, align 8
  %5 = alloca ptr, align 8
  %6 = alloca i32, align 4
  %7 = alloca i32, align 4
  %8 = alloca i32, align 4
  store ptr %0, ptr %4, align 8, !tbaa !59
  store ptr %1, ptr %5, align 8, !tbaa !59
  call void @llvm.lifetime.start.p0(i64 4, ptr %6) #14
  store i32 0, ptr %6, align 4, !tbaa !9
  br label %9

9:                                                ; preds = %32, %2
  %10 = load i32, ptr %6, align 4, !tbaa !9
  %11 = icmp slt i32 %10, 3
  br i1 %11, label %12, label %35

12:                                               ; preds = %9
  call void @llvm.lifetime.start.p0(i64 4, ptr %7) #14
  %13 = load i32, ptr %6, align 4, !tbaa !9
  %14 = add nsw i32 %13, 1
  %15 = srem i32 %14, 3
  store i32 %15, ptr %7, align 4, !tbaa !9
  %16 = load ptr, ptr %4, align 8, !tbaa !59
  %17 = load ptr, ptr %5, align 8, !tbaa !59
  %18 = load i32, ptr %7, align 4, !tbaa !9
  %19 = call noundef nonnull align 4 dereferenceable(4) ptr @_ZNK4int3ixEi(ptr noundef nonnull align 4 dereferenceable(12) %17, i32 noundef %18)
  %20 = load i32, ptr %19, align 4, !tbaa !9
  %21 = load ptr, ptr %5, align 8, !tbaa !59
  %22 = load i32, ptr %6, align 4, !tbaa !9
  %23 = call noundef nonnull align 4 dereferenceable(4) ptr @_ZNK4int3ixEi(ptr noundef nonnull align 4 dereferenceable(12) %21, i32 noundef %22)
  %24 = load i32, ptr %23, align 4, !tbaa !9
  %25 = call noundef i32 @_Z7hasedgeRK4int3ii(ptr noundef nonnull align 4 dereferenceable(12) %16, i32 noundef %20, i32 noundef %24)
  %26 = icmp ne i32 %25, 0
  br i1 %26, label %27, label %28

27:                                               ; preds = %12
  store i32 1, ptr %3, align 4
  store i32 1, ptr %8, align 4
  br label %29

28:                                               ; preds = %12
  store i32 0, ptr %8, align 4
  br label %29

29:                                               ; preds = %28, %27
  call void @llvm.lifetime.end.p0(i64 4, ptr %7) #14
  %30 = load i32, ptr %8, align 4
  switch i32 %30, label %36 [
    i32 0, label %31
  ]

31:                                               ; preds = %29
  br label %32

32:                                               ; preds = %31
  %33 = load i32, ptr %6, align 4, !tbaa !9
  %34 = add nsw i32 %33, 1
  store i32 %34, ptr %6, align 4, !tbaa !9
  br label %9, !llvm.loop !63

35:                                               ; preds = %9
  store i32 0, ptr %3, align 4
  store i32 1, ptr %8, align 4
  br label %36

36:                                               ; preds = %35, %29
  call void @llvm.lifetime.end.p0(i64 4, ptr %6) #14
  %37 = load i32, ptr %3, align 4
  ret i32 %37
}