; Function Attrs: mustprogress nofree norecurse nosync nounwind willreturn memory(argmem: read) uwtable
define dso_local noundef range(i32 0, 2) i32 @_Z9shareedgeRK4int3S1_(ptr noundef nonnull readonly align 4 captures(none) dereferenceable(12) %0, ptr noundef nonnull readonly align 4 captures(none) dereferenceable(12) %1) local_unnamed_addr #7 {
  br label %3

3:                                                ; preds = %2, %_Z7hasedgeRK4int3ii.exit
  %indvars.iv = phi i64 [ 0, %2 ], [ %indvars.iv.next, %_Z7hasedgeRK4int3ii.exit ]
  %indvars.iv.next = add nuw nsw i64 %indvars.iv, 1
  %4 = icmp eq i64 %indvars.iv.next, 3
  %5 = and i64 %indvars.iv.next, 4294967295
  %6 = select i1 %4, i64 0, i64 %5
  %7 = getelementptr inbounds nuw i32, ptr %1, i64 %6
  %8 = load i32, ptr %7, align 4, !tbaa !46
  %9 = getelementptr inbounds nuw i32, ptr %1, i64 %indvars.iv
  %10 = load i32, ptr %9, align 4, !tbaa !46
  br label %11

11:                                               ; preds = %.critedge.i, %3
  %indvars.iv.i = phi i64 [ 0, %3 ], [ %indvars.iv.next.i, %.critedge.i ]
  %indvars.iv.next.i = add nuw nsw i64 %indvars.iv.i, 1
  %12 = getelementptr inbounds nuw i32, ptr %0, i64 %indvars.iv.i
  %13 = load i32, ptr %12, align 4, !tbaa !46
  %14 = icmp eq i32 %13, %8
  br i1 %14, label %15, label %.critedge.i

15:                                               ; preds = %11
  %.cmp.not.i = icmp eq i64 %indvars.iv.i, 2
  %16 = select i1 %.cmp.not.i, i64 0, i64 %indvars.iv.next.i
  %17 = getelementptr inbounds nuw i32, ptr %0, i64 %16
  %18 = load i32, ptr %17, align 4, !tbaa !46
  %19 = icmp eq i32 %18, %10
  br i1 %19, label %_Z7hasedgeRK4int3ii.exit.thread, label %.critedge.i

.critedge.i:                                      ; preds = %15, %11
  %exitcond.not.i = icmp eq i64 %indvars.iv.next.i, 3
  br i1 %exitcond.not.i, label %_Z7hasedgeRK4int3ii.exit, label %11, !llvm.loop !48

_Z7hasedgeRK4int3ii.exit:                         ; preds = %.critedge.i
  %exitcond.not = icmp eq i64 %indvars.iv.next, 3
  br i1 %exitcond.not, label %_Z7hasedgeRK4int3ii.exit.thread, label %3, !llvm.loop !49

_Z7hasedgeRK4int3ii.exit.thread:                  ; preds = %_Z7hasedgeRK4int3ii.exit, %15
  %.2 = phi i32 [ 1, %15 ], [ 0, %_Z7hasedgeRK4int3ii.exit ]
  ret i32 %.2
}